target datalayout = "e-m:e-p270:32:32-p271:32:32-p272:64:64-i64:64-i128:128-f80:128-n8:16:32:64-S128"
target triple = "x86_64-pc-linux-gnu"

%struct.ACLLogEntry = type { i64, i32, i32, ptr, ptr, i64, ptr, i64, i64 }

; Function Attrs: nounwind uwtable
define dso_local i32 @ACLLogMatchEntry(ptr noundef %0, ptr noundef %1) #0 {
  %3 = alloca i32, align 4
  %4 = alloca ptr, align 8
  %5 = alloca ptr, align 8
  %6 = alloca i64, align 8
  %7 = alloca i32, align 4
  store ptr %0, ptr %4, align 8, !tbaa !158
  store ptr %1, ptr %5, align 8, !tbaa !158
  %8 = load ptr, ptr %4, align 8, !tbaa !158
  %9 = getelementptr inbounds nuw %struct.ACLLogEntry, ptr %8, i32 0, i32 1
  %10 = load i32, ptr %9, align 8, !tbaa !162
  %11 = load ptr, ptr %5, align 8, !tbaa !158
  %12 = getelementptr inbounds nuw %struct.ACLLogEntry, ptr %11, i32 0, i32 1
  %13 = load i32, ptr %12, align 8, !tbaa !162
  %14 = icmp ne i32 %10, %13
  br i1 %14, label %15, label %16

15:                                               ; preds = %2
  store i32 0, ptr %3, align 4
  br label %64

16:                                               ; preds = %2
  %17 = load ptr, ptr %4, align 8, !tbaa !158
  %18 = getelementptr inbounds nuw %struct.ACLLogEntry, ptr %17, i32 0, i32 2
  %19 = load i32, ptr %18, align 4, !tbaa !173
  %20 = load ptr, ptr %5, align 8, !tbaa !158
  %21 = getelementptr inbounds nuw %struct.ACLLogEntry, ptr %20, i32 0, i32 2
  %22 = load i32, ptr %21, align 4, !tbaa !173
  %23 = icmp ne i32 %19, %22
  br i1 %23, label %24, label %25

24:                                               ; preds = %16
  store i32 0, ptr %3, align 4
  br label %64

25:                                               ; preds = %16
  call void @llvm.lifetime.start.p0(i64 8, ptr %6) #14
  %26 = load ptr, ptr %4, align 8, !tbaa !158
  %27 = getelementptr inbounds nuw %struct.ACLLogEntry, ptr %26, i32 0, i32 5
  %28 = load i64, ptr %27, align 8, !tbaa !164
  %29 = load ptr, ptr %5, align 8, !tbaa !158
  %30 = getelementptr inbounds nuw %struct.ACLLogEntry, ptr %29, i32 0, i32 5
  %31 = load i64, ptr %30, align 8, !tbaa !164
  %32 = sub nsw i64 %28, %31
  store i64 %32, ptr %6, align 8, !tbaa !165
  %33 = load i64, ptr %6, align 8, !tbaa !165
  %34 = icmp slt i64 %33, 0
  br i1 %34, label %35, label %38

35:                                               ; preds = %25
  %36 = load i64, ptr %6, align 8, !tbaa !165
  %37 = sub nsw i64 0, %36
  store i64 %37, ptr %6, align 8, !tbaa !165
  br label %38

38:                                               ; preds = %35, %25
  %39 = load i64, ptr %6, align 8, !tbaa !165
  %40 = icmp sgt i64 %39, 60000
  br i1 %40, label %41, label %42

41:                                               ; preds = %38
  store i32 0, ptr %3, align 4
  store i32 1, ptr %7, align 4
  br label %63

42:                                               ; preds = %38
  %43 = load ptr, ptr %4, align 8, !tbaa !158
  %44 = getelementptr inbounds nuw %struct.ACLLogEntry, ptr %43, i32 0, i32 3
  %45 = load ptr, ptr %44, align 8, !tbaa !168
  %46 = load ptr, ptr %5, align 8, !tbaa !158
  %47 = getelementptr inbounds nuw %struct.ACLLogEntry, ptr %46, i32 0, i32 3
  %48 = load ptr, ptr %47, align 8, !tbaa !168
  %49 = call i32 @sdscmp(ptr noundef %45, ptr noundef %48)
  %50 = icmp ne i32 %49, 0
  br i1 %50, label %51, label %52

51:                                               ; preds = %42
  store i32 0, ptr %3, align 4
  store i32 1, ptr %7, align 4
  br label %63

52:                                               ; preds = %42
  %53 = load ptr, ptr %4, align 8, !tbaa !158
  %54 = getelementptr inbounds nuw %struct.ACLLogEntry, ptr %53, i32 0, i32 4
  %55 = load ptr, ptr %54, align 8, !tbaa !163
  %56 = load ptr, ptr %5, align 8, !tbaa !158
  %57 = getelementptr inbounds nuw %struct.ACLLogEntry, ptr %56, i32 0, i32 4
  %58 = load ptr, ptr %57, align 8, !tbaa !163
  %59 = call i32 @sdscmp(ptr noundef %55, ptr noundef %58)
  %60 = icmp ne i32 %59, 0
  br i1 %60, label %61, label %62

61:                                               ; preds = %52
  store i32 0, ptr %3, align 4
  store i32 1, ptr %7, align 4
  br label %63

62:                                               ; preds = %52
  store i32 1, ptr %3, align 4
  store i32 1, ptr %7, align 4
  br label %63

63:                                               ; preds = %62, %61, %51, %41
  call void @llvm.lifetime.end.p0(i64 8, ptr %6) #14
  br label %64

64:                                               ; preds = %63, %24, %15
  %65 = load i32, ptr %3, align 4
  ret i32 %65
}