; Function Attrs: nounwind uwtable
define dso_local range(i32 0, 2) i32 @ACLLogMatchEntry(ptr noundef readonly captures(none) %0, ptr noundef readonly captures(none) %1) local_unnamed_addr #0 {
  %3 = getelementptr inbounds nuw i8, ptr %0, i64 8
  %4 = load i32, ptr %3, align 8, !tbaa !161
  %5 = getelementptr inbounds nuw i8, ptr %1, i64 8
  %6 = load i32, ptr %5, align 8, !tbaa !161
  %.not = icmp eq i32 %4, %6
  br i1 %.not, label %7, label %31

7:                                                ; preds = %2
  %8 = getelementptr inbounds nuw i8, ptr %0, i64 12
  %9 = load i32, ptr %8, align 4, !tbaa !170
  %10 = getelementptr inbounds nuw i8, ptr %1, i64 12
  %11 = load i32, ptr %10, align 4, !tbaa !170
  %.not16 = icmp eq i32 %9, %11
  br i1 %.not16, label %12, label %31

12:                                               ; preds = %7
  %13 = getelementptr inbounds nuw i8, ptr %0, i64 32
  %14 = load i64, ptr %13, align 8, !tbaa !162
  %15 = getelementptr inbounds nuw i8, ptr %1, i64 32
  %16 = load i64, ptr %15, align 8, !tbaa !162
  %17 = sub nsw i64 %14, %16
  %spec.select = tail call i64 @llvm.abs.i64(i64 %17, i1 true)
  %18 = icmp samesign ugt i64 %spec.select, 60000
  br i1 %18, label %31, label %19

19:                                               ; preds = %12
  %20 = getelementptr inbounds nuw i8, ptr %0, i64 16
  %21 = load ptr, ptr %20, align 8, !tbaa !155
  %22 = getelementptr inbounds nuw i8, ptr %1, i64 16
  %23 = load ptr, ptr %22, align 8, !tbaa !155
  %24 = tail call i32 @sdscmp(ptr noundef %21, ptr noundef %23) #25
  %.not17 = icmp eq i32 %24, 0
  br i1 %.not17, label %25, label %31

25:                                               ; preds = %19
  %26 = getelementptr inbounds nuw i8, ptr %0, i64 24
  %27 = load ptr, ptr %26, align 8, !tbaa !157
  %28 = getelementptr inbounds nuw i8, ptr %1, i64 24
  %29 = load ptr, ptr %28, align 8, !tbaa !157
  %30 = tail call i32 @sdscmp(ptr noundef %27, ptr noundef %29) #25
  %.not18 = icmp eq i32 %30, 0
  %. = zext i1 %.not18 to i32
  br label %31

31:                                               ; preds = %12, %19, %25, %7, %2
  %.013 = phi i32 [ 0, %2 ], [ 0, %7 ], [ 0, %12 ], [ 0, %19 ], [ %., %25 ]
  ret i32 %.013
}